(lp0
(lp1
(S'Invert'
p2
F0.23773214058352043
I0
tp3
a(S'Contrast'
p4
F0.048626036980490506
F0.5539026815572112
tp5
aa(lp6
(S'Rotate'
p7
F0.6839999712139937
F1.3776538388006898
tp8
a(S'TranslateX'
p9
F0.04143740287204034
F-44.49801946115028
tp10
aa(lp11
(S'Sharpness'
p12
F0.48880896685170916
F1.7129290404232154
tp13
a(g12
F0.15657997626614129
F0.2758644643363438
tp14
aa(lp15
(S'ShearY'
p16
F0.364051029497212
F-0.08981938342421267
tp17
a(S'TranslateY'
p18
F0.28893539921078537
F-98.73766133922058
tp19
aa(lp20
(S'AutoContrast'
p21
F0.29146582015528744
I1
tp22
a(S'Equalize'
p23
F0.47191743748419823
I1
tp24
aa(lp25
(g16
F0.21785046005742836
F-0.12393312360484499
tp26
a(g18
F0.008424848234818705
F-88.11013478409288
tp27
aa(lp28
(S'Color'
p29
F0.1485090849451146
F1.295425838300327
tp30
a(S'Brightness'
p31
F0.018561211842157754
F1.0320081221358777
tp32
aa(lp33
(g12
F0.08879715756617423
F1.1997016896268626
tp34
a(g31
F0.14892222288222723
F0.41956262827027113
tp35
aa(lp36
(g23
F0.5268156330189974
I1
tp37
a(g23
F0.055285257221666995
I1
tp38
aa(lp39
(g4
F0.9912593934333215
F1.4263846141077243
tp40
a(g12
F0.10876226505966136
F1.2633864512735424
tp41
aa(lp42
(g29
F0.9146441149403791
F0.49440402771766256
tp43
a(g9
F0.5907278998790494
F-8.249282812049472
tp44
aa(lp45
(g23
F0.8774391216770475
I1
tp46
a(g21
F0.2828415073582089
I0
tp47
aa(lp48
(g18
F0.9932114920575426
F-107.96168495156999
tp49
a(g12
F0.026608316653255915
F0.6276928240490287
tp50
aa(lp51
(g31
F0.7188212559351878
F1.2014256937797387
tp52
a(g29
F0.0655085215953225
F0.3914812323295852
tp53
aa(lp54
(S'Solarize'
p55
F0.33328711576534553
F5.3702741495934525
tp56
a(g2
F0.18355220843765263
I1
tp57
aa(lp58
(g23
F0.8576339628952385
I0
tp59
a(g21
F0.4040115185071993
I1
tp60
aa(lp61
(g23
F0.33170333777205496
I0
tp62
a(g23
F0.16516974111058969
I0
tp63
aa(lp64
(g29
F0.9034930035589509
F1.8254197708357904
tp65
a(g23
F0.18221555482283058
I1
tp66
aa(lp67
(g21
F0.16129986395928575
I0
tp68
a(g55
F0.3752501692427206
F5.2477236570946335
tp69
aa(lp70
(g31
F0.7609011509429997
F1.1468300263328435
tp71
a(g29
F8.168826692767084e-05
F0.2772700020455694
tp72
aa(lp73
(g55
F0.07624514391214043
F6.1070376050701345
tp74
a(g21
F0.23236974521054699
I0
tp75
aa(lp76
(g18
F0.030172249465181045
F-125.6298813297401
tp77
a(g18
F0.08963334519381061
F-66.70599881752591
tp78
aa(lp79
(g21
F0.3121722874116103
I0
tp80
a(g55
F0.020762268448898835
F6.138978485973748
tp81
aa(lp82
(g23
F0.41729992128503424
I0
tp83
a(g2
F0.05848280450274013
I0
tp84
aa(lp85
(g18
F0.009211124339647214
F-71.73029598136532
tp86
a(g21
F0.037467803167866576
I0
tp87
aa.