(lp0
(lp1
(S'Invert'
p2
(lp3
F0.23773214058352043
a(lp4
I0
atp5
a(S'Contrast'
p6
(lp7
F0.048626036980490506
a(lp8
F0.5539026815572112
atp9
aa(lp10
(S'Rotate'
p11
(lp12
F0.6839999712139937
a(lp13
F1.3776538388006898
atp14
a(S'TranslateX'
p15
(lp16
F0.04143740287204034
a(lp17
F-44.49801946115028
atp18
aa(lp19
(S'Sharpness'
p20
(lp21
F0.48880896685170916
a(lp22
F1.7129290404232154
atp23
a(g20
(lp24
F0.15657997626614129
a(lp25
F0.2758644643363438
atp26
aa(lp27
(S'ShearY'
p28
(lp29
F0.364051029497212
a(lp30
F-0.08981938342421267
atp31
a(S'TranslateY'
p32
(lp33
F0.28893539921078537
a(lp34
F-98.73766133922058
atp35
aa(lp36
(S'AutoContras'
p37
(lp38
F0.29146582015528744
a(lp39
I1
atp40
a(S'Equalize'
p41
(lp42
F0.47191743748419823
a(lp43
I1
atp44
aa(lp45
(g28
(lp46
F0.21785046005742836
a(lp47
F-0.12393312360484499
atp48
a(g32
(lp49
F0.008424848234818705
a(lp50
F-88.11013478409288
atp51
aa(lp52
(S'Color'
p53
(lp54
F0.1485090849451146
a(lp55
F1.295425838300327
atp56
a(S'Brightness'
p57
(lp58
F0.018561211842157754
a(lp59
F1.0320081221358777
atp60
aa(lp61
(g20
(lp62
F0.08879715756617423
a(lp63
F1.1997016896268626
atp64
a(g57
(lp65
F0.14892222288222723
a(lp66
F0.41956262827027113
atp67
aa(lp68
(g41
(lp69
F0.5268156330189974
a(lp70
I1
atp71
a(g41
(lp72
F0.055285257221666995
a(lp73
I1
atp74
aa(lp75
(S'Contras'
p76
(lp77
F0.9912593934333215
a(lp78
F1.4263846141077243
atp79
a(g20
(lp80
F0.10876226505966136
a(lp81
F1.2633864512735424
atp82
aa(lp83
(g53
(lp84
F0.9146441149403791
a(lp85
F0.49440402771766256
atp86
a(g15
(lp87
F0.5907278998790494
a(lp88
F-8.249282812049472
atp89
aa(lp90
(g41
(lp91
F0.8774391216770475
a(lp92
I1
atp93
a(S'AutoContrast'
p94
(lp95
F0.2828415073582089
a(lp96
I0
atp97
aa(lp98
(g32
(lp99
F0.9932114920575426
a(lp100
F-107.96168495156999
atp101
a(g20
(lp102
F0.026608316653255915
a(lp103
F0.6276928240490287
atp104
aa(lp105
(g57
(lp106
F0.7188212559351878
a(lp107
F1.2014256937797387
atp108
a(g53
(lp109
F0.0655085215953225
a(lp110
F0.3914812323295852
atp111
aa(lp112
(S'Solarize'
p113
(lp114
F0.33328711576534553
a(lp115
F5.3702741495934525
atp116
a(g2
(lp117
F0.18355220843765263
a(lp118
I1
atp119
aa(lp120
(g41
(lp121
F0.8576339628952385
a(lp122
I0
atp123
a(g94
(lp124
F0.4040115185071993
a(lp125
I1
atp126
aa(lp127
(g41
(lp128
F0.33170333777205496
a(lp129
I0
atp130
a(g41
(lp131
F0.16516974111058969
a(lp132
I0
atp133
aa(lp134
(g53
(lp135
F0.9034930035589509
a(lp136
F1.8254197708357904
atp137
a(g41
(lp138
F0.18221555482283058
a(lp139
I1
atp140
aa(lp141
(g94
(lp142
F0.16129986395928575
a(lp143
I0
atp144
a(g113
(lp145
F0.3752501692427206
a(lp146
F5.2477236570946335
atp147
aa(lp148
(g57
(lp149
F0.7609011509429997
a(lp150
F1.1468300263328435
atp151
a(g53
(lp152
F8.168826692767084e-05
a(lp153
F0.2772700020455694
atp154
aa(lp155
(g113
(lp156
F0.07624514391214043
a(lp157
F6.1070376050701345
atp158
a(g94
(lp159
F0.23236974521054699
a(lp160
I0
atp161
aa(lp162
(g32
(lp163
F0.030172249465181045
a(lp164
F-125.6298813297401
atp165
a(g32
(lp166
F0.08963334519381061
a(lp167
F-66.70599881752591
atp168
aa(lp169
(g94
(lp170
F0.3121722874116103
a(lp171
I0
atp172
a(g113
(lp173
F0.020762268448898835
a(lp174
F6.138978485973748
atp175
aa(lp176
(g41
(lp177
F0.41729992128503424
a(lp178
I0
atp179
a(g2
(lp180
F0.05848280450274013
a(lp181
I0
atp182
aa(lp183
(g32
(lp184
F0.009211124339647214
a(lp185
F-71.73029598136532
atp186
a(g94
(lp187
F0.037467803167866576
a(lp188
I0
atp189
aa.