(lp0
(lp1
(S'Invert'
p2
(lp3
F0.23773214058352043
a(lp4
I0
atp5
a(S'Contrast'
p6
(lp7
F0.048626036980490506
a(lp8
F0.5539026815572112
atp9
aa(lp10
(S'Rotate'
p11
(lp12
F0.6839999712139937
a(lp13
F1.3776538388006898
atp14
a(S'TranslateX'
p15
(lp16
F0.04143740287204034
a(lp17
F-44.49801946115028
atp18
aa(lp19
(S'Sharpness'
p20
(lp21
F0.48880896685170916
a(lp22
F1.7129290404232154
atp23
a(g20
(lp24
F0.15657997626614129
a(lp25
F0.2758644643363438
atp26
aa(lp27
(S'ShearY'
p28
(lp29
F0.364051029497212
a(lp30
F-0.08981938342421267
atp31
a(S'TranslateY'
p32
(lp33
F0.28893539921078537
a(lp34
F-98.73766133922058
atp35
aa(lp36
(S'AutoContrast'
p37
(lp38
F0.29146582015528744
a(lp39
I1
atp40
a(S'Equalize'
p41
(lp42
F0.47191743748419823
a(lp43
I1
atp44
aa(lp45
(g28
(lp46
F0.21785046005742836
a(lp47
F-0.12393312360484499
atp48
a(g32
(lp49
F0.008424848234818705
a(lp50
F-88.11013478409288
atp51
aa(lp52
(S'Color'
p53
(lp54
F0.1485090849451146
a(lp55
F1.295425838300327
atp56
a(S'Brightness'
p57
(lp58
F0.018561211842157754
a(lp59
F1.0320081221358777
atp60
aa(lp61
(g20
(lp62
F0.08879715756617423
a(lp63
F1.1997016896268626
atp64
a(g57
(lp65
F0.14892222288222723
a(lp66
F0.41956262827027113
atp67
aa(lp68
(g41
(lp69
F0.5268156330189974
a(lp70
I1
atp71
a(g41
(lp72
F0.055285257221666995
a(lp73
I1
atp74
aa(lp75
(S'Contras'
p76
(lp77
F0.9912593934333215
a(lp78
F1.4263846141077243
atp79
a(g20
(lp80
F0.10876226505966136
a(lp81
F1.2633864512735424
atp82
aa(lp83
(g53
(lp84
F0.9146441149403791
a(lp85
F0.49440402771766256
atp86
a(g15
(lp87
F0.5907278998790494
a(lp88
F-8.249282812049472
atp89
aa(lp90
(g41
(lp91
F0.8774391216770475
a(lp92
I1
atp93
a(g37
(lp94
F0.2828415073582089
a(lp95
I0
atp96
aa(lp97
(g32
(lp98
F0.9932114920575426
a(lp99
F-107.96168495156999
atp100
a(g20
(lp101
F0.026608316653255915
a(lp102
F0.6276928240490287
atp103
aa(lp104
(g57
(lp105
F0.7188212559351878
a(lp106
F1.2014256937797387
atp107
a(g53
(lp108
F0.0655085215953225
a(lp109
F0.3914812323295852
atp110
aa(lp111
(S'Solarize'
p112
(lp113
F0.33328711576534553
a(lp114
F5.3702741495934525
atp115
a(g2
(lp116
F0.18355220843765263
a(lp117
I1
atp118
aa(lp119
(g41
(lp120
F0.8576339628952385
a(lp121
I0
atp122
a(g37
(lp123
F0.4040115185071993
a(lp124
I1
atp125
aa(lp126
(g41
(lp127
F0.33170333777205496
a(lp128
I0
atp129
a(g41
(lp130
F0.16516974111058969
a(lp131
I0
atp132
aa(lp133
(g53
(lp134
F0.9034930035589509
a(lp135
F1.8254197708357904
atp136
a(g41
(lp137
F0.18221555482283058
a(lp138
I1
atp139
aa(lp140
(g37
(lp141
F0.16129986395928575
a(lp142
I0
atp143
a(g112
(lp144
F0.3752501692427206
a(lp145
F5.2477236570946335
atp146
aa(lp147
(g57
(lp148
F0.7609011509429997
a(lp149
F1.1468300263328435
atp150
a(g53
(lp151
F8.168826692767084e-05
a(lp152
F0.2772700020455694
atp153
aa(lp154
(g112
(lp155
F0.07624514391214043
a(lp156
F6.1070376050701345
atp157
a(g37
(lp158
F0.23236974521054699
a(lp159
I0
atp160
aa(lp161
(g32
(lp162
F0.030172249465181045
a(lp163
F-125.6298813297401
atp164
a(g32
(lp165
F0.08963334519381061
a(lp166
F-66.70599881752591
atp167
aa(lp168
(g37
(lp169
F0.3121722874116103
a(lp170
I0
atp171
a(g112
(lp172
F0.020762268448898835
a(lp173
F6.138978485973748
atp174
aa(lp175
(g41
(lp176
F0.41729992128503424
a(lp177
I0
atp178
a(g2
(lp179
F0.05848280450274013
a(lp180
I0
atp181
aa(lp182
(g32
(lp183
F0.009211124339647214
a(lp184
F-71.73029598136532
atp185
a(g37
(lp186
F0.037467803167866576
a(lp187
I0
atp188
aa.